target datalayout = "e-m:e-p270:32:32-p271:32:32-p272:64:64-i64:64-i128:128-f80:128-n8:16:32:64-S128"
target triple = "x86_64-pc-linux-gnu"

%struct.PJ_XY = type { double, double }
%struct.PJ_LP = type { double, double }

; Function Attrs: mustprogress nounwind uwtable
define linkonce_odr noundef nonnull align 8 dereferenceable(8) ptr @_ZSt3maxIdERKT_S2_S2_(ptr noundef nonnull align 8 dereferenceable(8) %0, ptr noundef nonnull align 8 dereferenceable(8) %1) #7 comdat {
  %3 = alloca ptr, align 8
  %4 = alloca ptr, align 8
  %5 = alloca ptr, align 8
  store ptr %0, ptr %4, align 8
  store ptr %1, ptr %5, align 8
  %6 = load ptr, ptr %4, align 8
  %7 = load double, ptr %6, align 8
  %8 = load ptr, ptr %5, align 8
  %9 = load double, ptr %8, align 8
  %10 = fcmp olt double %7, %9
  br i1 %10, label %11, label %13

11:                                               ; preds = %2
  %12 = load ptr, ptr %5, align 8
  store ptr %12, ptr %3, align 8
  br label %15

13:                                               ; preds = %2
  %14 = load ptr, ptr %4, align 8
  store ptr %14, ptr %3, align 8
  br label %15

15:                                               ; preds = %13, %11
  %16 = load ptr, ptr %3, align 8
  ret ptr %16
}

; Function Attrs: mustprogress nounwind uwtable
define linkonce_odr noundef nonnull align 8 dereferenceable(8) ptr @_ZSt3minIdERKT_S2_S2_(ptr noundef nonnull align 8 dereferenceable(8) %0, ptr noundef nonnull align 8 dereferenceable(8) %1) #7 comdat {
  %3 = alloca ptr, align 8
  %4 = alloca ptr, align 8
  %5 = alloca ptr, align 8
  store ptr %0, ptr %4, align 8
  store ptr %1, ptr %5, align 8
  %6 = load ptr, ptr %5, align 8
  %7 = load double, ptr %6, align 8
  %8 = load ptr, ptr %4, align 8
  %9 = load double, ptr %8, align 8
  %10 = fcmp olt double %7, %9
  br i1 %10, label %11, label %13

11:                                               ; preds = %2
  %12 = load ptr, ptr %5, align 8
  store ptr %12, ptr %3, align 8
  br label %15

13:                                               ; preds = %2
  %14 = load ptr, ptr %4, align 8
  store ptr %14, ptr %3, align 8
  br label %15

15:                                               ; preds = %13, %11
  %16 = load ptr, ptr %3, align 8
  ret ptr %16
}

; Function Attrs: mustprogress uwtable
define internal { double, double } @_ZL13adams_inverse5PJ_XYP8PJconsts(double %0, double %1, ptr noundef %2) #0 {
  %4 = alloca %struct.PJ_LP, align 8
  %5 = alloca %struct.PJ_XY, align 8
  %6 = alloca ptr, align 8
  %7 = alloca %struct.PJ_LP, align 8
  %8 = alloca double, align 8
  %9 = alloca double, align 8
  %10 = alloca double, align 8
  %11 = alloca double, align 8
  %12 = alloca double, align 8
  %13 = alloca double, align 8
  %14 = alloca double, align 8
  %15 = alloca %struct.PJ_XY, align 8
  %16 = alloca %struct.PJ_LP, align 8
  %17 = getelementptr inbounds { double, double }, ptr %5, i32 0, i32 0
  store double %0, ptr %17, align 8
  %18 = getelementptr inbounds { double, double }, ptr %5, i32 0, i32 1
  store double %1, ptr %18, align 8
  store ptr %2, ptr %6, align 8
  %19 = getelementptr inbounds %struct.PJ_XY, ptr %5, i32 0, i32 1
  %20 = load double, ptr %19, align 8
  %21 = fdiv double %20, 0x4004F979572EE5F2
  store double %21, ptr %8, align 8
  store double 1.000000e+00, ptr %9, align 8
  %22 = call noundef nonnull align 8 dereferenceable(8) ptr @_ZSt3minIdERKT_S2_S2_(ptr noundef nonnull align 8 dereferenceable(8) %8, ptr noundef nonnull align 8 dereferenceable(8) %9)
  store double -1.000000e+00, ptr %10, align 8
  %23 = call noundef nonnull align 8 dereferenceable(8) ptr @_ZSt3maxIdERKT_S2_S2_(ptr noundef nonnull align 8 dereferenceable(8) %22, ptr noundef nonnull align 8 dereferenceable(8) %10)
  %24 = load double, ptr %23, align 8
  %25 = fmul double %24, 0x3FF921FB54442D18
  %26 = getelementptr inbounds %struct.PJ_LP, ptr %7, i32 0, i32 1
  store double %25, ptr %26, align 8
  %27 = getelementptr inbounds %struct.PJ_LP, ptr %7, i32 0, i32 1
  %28 = load double, ptr %27, align 8
  %29 = call double @llvm.fabs.f64(double %28)
  %30 = fcmp oge double %29, 0x3FF921FB54442D18
  br i1 %30, label %31, label %32

31:                                               ; preds = %3
  br label %44

32:                                               ; preds = %3
  %33 = getelementptr inbounds %struct.PJ_XY, ptr %5, i32 0, i32 0
  %34 = load double, ptr %33, align 8
  %35 = fdiv double %34, 0x4004F9F955C1D375
  %36 = getelementptr inbounds %struct.PJ_LP, ptr %7, i32 0, i32 1
  %37 = load double, ptr %36, align 8
  %38 = call double @cos(double noundef %37) #10
  %39 = fdiv double %35, %38
  store double %39, ptr %11, align 8
  store double 1.000000e+00, ptr %12, align 8
  %40 = call noundef nonnull align 8 dereferenceable(8) ptr @_ZSt3minIdERKT_S2_S2_(ptr noundef nonnull align 8 dereferenceable(8) %11, ptr noundef nonnull align 8 dereferenceable(8) %12)
  store double -1.000000e+00, ptr %13, align 8
  %41 = call noundef nonnull align 8 dereferenceable(8) ptr @_ZSt3maxIdERKT_S2_S2_(ptr noundef nonnull align 8 dereferenceable(8) %40, ptr noundef nonnull align 8 dereferenceable(8) %13)
  %42 = load double, ptr %41, align 8
  %43 = fmul double %42, 0x400921FB54442D18
  br label %44

44:                                               ; preds = %32, %31
  %45 = phi double [ 0.000000e+00, %31 ], [ %43, %32 ]
  %46 = getelementptr inbounds %struct.PJ_LP, ptr %7, i32 0, i32 0
  store double %45, ptr %46, align 8
  store double 1.000000e-10, ptr %14, align 8
  call void @llvm.memcpy.p0.p0.i64(ptr align 8 %15, ptr align 8 %5, i64 16, i1 false)
  %47 = load ptr, ptr %6, align 8
  call void @llvm.memcpy.p0.p0.i64(ptr align 8 %16, ptr align 8 %7, i64 16, i1 false)
  %48 = getelementptr inbounds { double, double }, ptr %15, i32 0, i32 0
  %49 = load double, ptr %48, align 8
  %50 = getelementptr inbounds { double, double }, ptr %15, i32 0, i32 1
  %51 = load double, ptr %50, align 8
  %52 = getelementptr inbounds { double, double }, ptr %16, i32 0, i32 0
  %53 = load double, ptr %52, align 8
  %54 = getelementptr inbounds { double, double }, ptr %16, i32 0, i32 1
  %55 = load double, ptr %54, align 8
  %56 = call { double, double } @_Z21pj_generic_inverse_2d5PJ_XYP8PJconsts5PJ_LPd(double %49, double %51, ptr noundef %47, double %53, double %55, double noundef 1.000000e-10)
  %57 = getelementptr inbounds { double, double }, ptr %4, i32 0, i32 0
  %58 = extractvalue { double, double } %56, 0
  store double %58, ptr %57, align 8
  %59 = getelementptr inbounds { double, double }, ptr %4, i32 0, i32 1
  %60 = extractvalue { double, double } %56, 1
  store double %60, ptr %59, align 8
  %61 = load { double, double }, ptr %4, align 8
  ret { double, double } %61
}