; Function Attrs: mustprogress uwtable
define internal { double, double } @_ZL13adams_inverse5PJ_XYP8PJconsts(double %0, double %1, ptr noundef %2) #0 {
  %4 = fdiv double %1, 0x4004F979572EE5F2
  %5 = fcmp ogt double %4, 1.000000e+00
  %.sroa.speculated20 = select i1 %5, double 1.000000e+00, double %4
  %6 = fcmp olt double %.sroa.speculated20, -1.000000e+00
  %.sroa.speculated16 = select i1 %6, double -1.000000e+00, double %.sroa.speculated20
  %7 = fmul double %.sroa.speculated16, 0x3FF921FB54442D18
  %8 = tail call double @llvm.fabs.f64(double %7)
  %9 = fcmp ult double %8, 0x3FF921FB54442D18
  br i1 %9, label %10, label %17

10:                                               ; preds = %3
  %11 = fdiv double %0, 0x4004F9F955C1D375
  %12 = tail call double @cos(double noundef %7) #9
  %13 = fdiv double %11, %12
  %14 = fcmp ogt double %13, 1.000000e+00
  %.sroa.speculated12 = select i1 %14, double 1.000000e+00, double %13
  %15 = fcmp olt double %.sroa.speculated12, -1.000000e+00
  %.sroa.speculated = select i1 %15, double -1.000000e+00, double %.sroa.speculated12
  %16 = fmul double %.sroa.speculated, 0x400921FB54442D18
  br label %17

17:                                               ; preds = %3, %10
  %18 = phi double [ %16, %10 ], [ 0.000000e+00, %3 ]
  %19 = tail call { double, double } @_Z21pj_generic_inverse_2d5PJ_XYP8PJconsts5PJ_LPd(double %0, double %1, ptr noundef %2, double %18, double %7, double noundef 1.000000e-10)
  ret { double, double } %19
}